; Function Attrs: mustprogress nounwind uwtable
define hidden noundef double @_ZN10ZStatCycle15time_since_lastEv(ptr nocapture noundef nonnull readonly align 8 dereferenceable(376) %0) local_unnamed_addr #0 align 2 {
  %2 = getelementptr inbounds i8, ptr %0, i64 64
  %3 = load i64, ptr %2, align 8
  %4 = icmp eq i64 %3, 0
  br i1 %4, label %5, label %7

5:                                                ; preds = %1
  %6 = tail call noundef double @_ZN2os11elapsedTimeEv() #20
  br label %17

7:                                                ; preds = %1
  %8 = tail call { i64, i64 } @_ZN29CompositeElapsedCounterSource3nowEv() #20
  %9 = extractvalue { i64, i64 } %8, 0
  %10 = extractvalue { i64, i64 } %8, 1
  %11 = load i64, ptr %2, align 8
  %12 = sub nsw i64 %9, %11
  %13 = getelementptr inbounds i8, ptr %0, i64 72
  %14 = load i64, ptr %13, align 8
  %15 = sub nsw i64 %10, %14
  %16 = tail call noundef double @_ZN29CompositeElapsedCounterSource7secondsE7PairRepIllE(i64 %12, i64 %15) #20
  br label %17

17:                                               ; preds = %7, %5
  %.0 = phi double [ %6, %5 ], [ %16, %7 ]
  ret double %.0
}